; Function Attrs: mustprogress uwtable
define void @_ZN5faiss8IndexNSG5resetEv(ptr noundef nonnull align 8 dereferenceable(5132) %0) unnamed_addr #1 align 2 {
  %2 = getelementptr inbounds i8, ptr %0, i64 40
  tail call void @_ZN5faiss3NSG5resetEv(ptr noundef nonnull align 8 dereferenceable(5048) %2)
  %3 = getelementptr inbounds i8, ptr %0, i64 5096
  %4 = load ptr, ptr %3, align 8
  %5 = load ptr, ptr %4, align 8
  %6 = getelementptr inbounds i8, ptr %5, i64 64
  %7 = load ptr, ptr %6, align 8
  tail call void %7(ptr noundef nonnull align 8 dereferenceable(36) %4)
  %8 = getelementptr inbounds i8, ptr %0, i64 16
  store i64 0, ptr %8, align 8
  %9 = getelementptr inbounds i8, ptr %0, i64 5104
  store i8 0, ptr %9, align 8
  ret void
}